; Function Attrs: mustprogress nofree norecurse nosync nounwind null_pointer_is_valid sspstrong willreturn memory(argmem: readwrite) uwtable
define hidden void @cf_mark_frame(ptr noundef captures(none) %0, ptr noundef captures(none) %1) local_unnamed_addr #18 {
  %3 = getelementptr inbounds nuw i8, ptr %1, i64 57
  %4 = load i16, ptr %3, align 1
  %5 = and i16 %4, 16
  %.not = icmp eq i16 %5, 0
  br i1 %.not, label %6, label %15

6:                                                ; preds = %2
  %7 = or disjoint i16 %4, 16
  store i16 %7, ptr %3, align 1
  %8 = getelementptr inbounds nuw i8, ptr %0, i64 72
  %9 = load i32, ptr %8, align 8
  %10 = getelementptr inbounds nuw i8, ptr %0, i64 92
  %11 = load i32, ptr %10, align 4
  %12 = icmp ugt i32 %9, %11
  br i1 %12, label %13, label %15

13:                                               ; preds = %6
  %14 = add nuw i32 %11, 1
  store i32 %14, ptr %10, align 4
  br label %15

15:                                               ; preds = %6, %13, %2
  ret void
}